target datalayout = "e-m:e-p270:32:32-p271:32:32-p272:64:64-i64:64-i128:128-f80:128-n8:16:32:64-S128"
target triple = "x86_64-pc-linux-gnu"

%struct._zval_struct = type { %union._zend_value, %union.anon.3, %union.anon.6 }
%union._zend_value = type { i64 }
%union.anon.3 = type { i32 }
%union.anon.6 = type { i32 }
%struct._zend_refcounted_h = type { i32, %union.anon }
%union.anon = type { i32 }
%struct._zend_string = type { %struct._zend_refcounted_h, i64, i64, [1 x i8] }
%struct._zend_execute_data = type { ptr, ptr, ptr, ptr, %struct._zval_struct, ptr, ptr, ptr, ptr }
%struct.protoent = type { ptr, ptr, i32 }

; Function Attrs: nounwind uwtable
define hidden void @zif_getprotobyname(ptr noundef %0, ptr noundef %1) #0 {
  %3 = alloca ptr, align 8
  %4 = alloca ptr, align 8
  %5 = alloca i1, align 1
  %6 = alloca ptr, align 8
  %7 = alloca ptr, align 8
  %8 = alloca i8, align 1
  %9 = alloca i32, align 4
  %10 = alloca i8, align 1
  %11 = alloca ptr, align 8
  %12 = alloca ptr, align 8
  %13 = alloca i8, align 1
  %14 = alloca i32, align 4
  %15 = alloca i1, align 1
  %16 = alloca ptr, align 8
  %17 = alloca ptr, align 8
  %18 = alloca ptr, align 8
  %19 = alloca i8, align 1
  %20 = alloca i32, align 4
  %21 = alloca ptr, align 8
  %22 = alloca ptr, align 8
  %23 = alloca ptr, align 8
  %24 = alloca ptr, align 8
  %25 = alloca i64, align 8
  %26 = alloca ptr, align 8
  %27 = alloca i32, align 4
  %28 = alloca i32, align 4
  %29 = alloca i32, align 4
  %30 = alloca i32, align 4
  %31 = alloca i32, align 4
  %32 = alloca ptr, align 8
  %33 = alloca ptr, align 8
  %34 = alloca i32, align 4
  %35 = alloca ptr, align 8
  %36 = alloca i8, align 1
  %37 = alloca i8, align 1
  %38 = alloca i32, align 4
  %39 = alloca ptr, align 8
  store ptr %0, ptr %22, align 8
  store ptr %1, ptr %23, align 8
  br label %40

40:                                               ; preds = %2
  store i32 0, ptr %27, align 4
  store i32 1, ptr %28, align 4
  store i32 1, ptr %29, align 4
  %41 = load ptr, ptr %22, align 8
  %42 = getelementptr inbounds %struct._zend_execute_data, ptr %41, i32 0, i32 4
  %43 = getelementptr inbounds %struct._zval_struct, ptr %42, i32 0, i32 2
  %44 = load i32, ptr %43, align 4
  store i32 %44, ptr %30, align 4
  store i32 0, ptr %31, align 4
  store ptr null, ptr %33, align 8
  store i32 0, ptr %34, align 4
  store ptr null, ptr %35, align 8
  store i8 0, ptr %36, align 1
  store i8 0, ptr %37, align 1
  store i32 0, ptr %38, align 4
  br label %45

45:                                               ; preds = %40
  %46 = load i32, ptr %30, align 4
  %47 = load i32, ptr %28, align 4
  %48 = icmp ult i32 %46, %47
  %49 = xor i1 %48, true
  %50 = xor i1 %49, true
  %51 = zext i1 %50 to i32
  %52 = sext i32 %51 to i64
  %53 = icmp ne i64 %52, 0
  br i1 %53, label %63, label %54

54:                                               ; preds = %45
  %55 = load i32, ptr %30, align 4
  %56 = load i32, ptr %29, align 4
  %57 = icmp ugt i32 %55, %56
  %58 = xor i1 %57, true
  %59 = xor i1 %58, true
  %60 = zext i1 %59 to i32
  %61 = sext i32 %60 to i64
  %62 = icmp ne i64 %61, 0
  br i1 %62, label %63, label %66

63:                                               ; preds = %54, %45
  %64 = load i32, ptr %28, align 4
  %65 = load i32, ptr %29, align 4
  call void @zend_wrong_parameters_count_error(i32 noundef %64, i32 noundef %65)
  store i32 1, ptr %38, align 4
  br label %197

66:                                               ; preds = %54
  %67 = load ptr, ptr %22, align 8
  %68 = getelementptr inbounds %struct._zval_struct, ptr %67, i64 4
  store ptr %68, ptr %32, align 8
  %69 = load i32, ptr %31, align 4
  %70 = add i32 %69, 1
  store i32 %70, ptr %31, align 4
  %71 = load i32, ptr %31, align 4
  %72 = load i32, ptr %28, align 4
  %73 = icmp ule i32 %71, %72
  br i1 %73, label %79, label %74

74:                                               ; preds = %66
  %75 = load i8, ptr %37, align 1
  %76 = trunc i8 %75 to i1
  %77 = zext i1 %76 to i32
  %78 = icmp eq i32 %77, 1
  br label %79

79:                                               ; preds = %74, %66
  %80 = phi i1 [ true, %66 ], [ %78, %74 ]
  call void @llvm.assume(i1 %80)
  %81 = load i32, ptr %31, align 4
  %82 = load i32, ptr %28, align 4
  %83 = icmp ugt i32 %81, %82
  br i1 %83, label %89, label %84

84:                                               ; preds = %79
  %85 = load i8, ptr %37, align 1
  %86 = trunc i8 %85 to i1
  %87 = zext i1 %86 to i32
  %88 = icmp eq i32 %87, 0
  br label %89

89:                                               ; preds = %84, %79
  %90 = phi i1 [ true, %79 ], [ %88, %84 ]
  call void @llvm.assume(i1 %90)
  %91 = load i8, ptr %37, align 1
  %92 = trunc i8 %91 to i1
  br i1 %92, label %93, label %104

93:                                               ; preds = %89
  %94 = load i32, ptr %31, align 4
  %95 = load i32, ptr %30, align 4
  %96 = icmp ugt i32 %94, %95
  %97 = xor i1 %96, true
  %98 = xor i1 %97, true
  %99 = zext i1 %98 to i32
  %100 = sext i32 %99 to i64
  %101 = icmp ne i64 %100, 0
  br i1 %101, label %102, label %103

102:                                              ; preds = %93
  br label %197

103:                                              ; preds = %93
  br label %104

104:                                              ; preds = %103, %89
  %105 = load ptr, ptr %32, align 8
  %106 = getelementptr inbounds %struct._zval_struct, ptr %105, i32 1
  store ptr %106, ptr %32, align 8
  %107 = load ptr, ptr %32, align 8
  store ptr %107, ptr %33, align 8
  %108 = load ptr, ptr %33, align 8
  %109 = load i32, ptr %31, align 4
  store ptr %108, ptr %16, align 8
  store ptr %24, ptr %17, align 8
  store ptr %25, ptr %18, align 8
  store i8 0, ptr %19, align 1
  store i32 %109, ptr %20, align 4
  %110 = load ptr, ptr %16, align 8
  %111 = load i8, ptr %19, align 1
  %112 = trunc i8 %111 to i1
  %113 = load i32, ptr %20, align 4
  store ptr %110, ptr %11, align 8
  store ptr %21, ptr %12, align 8
  %114 = zext i1 %112 to i8
  store i8 %114, ptr %13, align 1
  store i32 %113, ptr %14, align 4
  %115 = load ptr, ptr %11, align 8
  %116 = load ptr, ptr %12, align 8
  %117 = load i8, ptr %13, align 1
  %118 = trunc i8 %117 to i1
  %119 = load i32, ptr %14, align 4
  store ptr %115, ptr %6, align 8
  store ptr %116, ptr %7, align 8
  %120 = zext i1 %118 to i8
  store i8 %120, ptr %8, align 1
  store i32 %119, ptr %9, align 4
  store i8 0, ptr %10, align 1
  %121 = load ptr, ptr %6, align 8
  store ptr %121, ptr %3, align 8
  %122 = load ptr, ptr %3, align 8
  %123 = getelementptr inbounds %struct._zval_struct, ptr %122, i32 0, i32 1
  %124 = load i8, ptr %123, align 8
  %125 = zext i8 %124 to i32
  %126 = icmp eq i32 %125, 6
  br i1 %126, label %127, label %131

127:                                              ; preds = %104
  %128 = load ptr, ptr %6, align 8
  %129 = load ptr, ptr %128, align 8
  %130 = load ptr, ptr %7, align 8
  store ptr %129, ptr %130, align 8
  br label %156

131:                                              ; preds = %104
  %132 = load i8, ptr %8, align 1
  %133 = trunc i8 %132 to i1
  br i1 %133, label %134, label %143

134:                                              ; preds = %131
  %135 = load ptr, ptr %6, align 8
  store ptr %135, ptr %4, align 8
  %136 = load ptr, ptr %4, align 8
  %137 = getelementptr inbounds %struct._zval_struct, ptr %136, i32 0, i32 1
  %138 = load i8, ptr %137, align 8
  %139 = zext i8 %138 to i32
  %140 = icmp eq i32 %139, 1
  br i1 %140, label %141, label %143

141:                                              ; preds = %134
  %142 = load ptr, ptr %7, align 8
  store ptr null, ptr %142, align 8
  br label %156

143:                                              ; preds = %134, %131
  %144 = load i8, ptr %10, align 1
  %145 = trunc i8 %144 to i1
  br i1 %145, label %146, label %151

146:                                              ; preds = %143
  %147 = load ptr, ptr %6, align 8
  %148 = load ptr, ptr %7, align 8
  %149 = load i32, ptr %9, align 4
  %150 = call zeroext i1 @zend_flf_parse_arg_str_slow(ptr noundef %147, ptr noundef %148, i32 noundef %149) #12
  store i1 %150, ptr %5, align 1
  br label %157

151:                                              ; preds = %143
  %152 = load ptr, ptr %6, align 8
  %153 = load ptr, ptr %7, align 8
  %154 = load i32, ptr %9, align 4
  %155 = call zeroext i1 @zend_parse_arg_str_slow(ptr noundef %152, ptr noundef %153, i32 noundef %154) #12
  store i1 %155, ptr %5, align 1
  br label %157

156:                                              ; preds = %141, %127
  store i1 true, ptr %5, align 1
  br label %157

157:                                              ; preds = %156, %151, %146
  %158 = load i1, ptr %5, align 1
  br i1 %158, label %160, label %159

159:                                              ; preds = %157
  store i1 false, ptr %15, align 1
  br label %179

160:                                              ; preds = %157
  %161 = load i8, ptr %19, align 1
  %162 = trunc i8 %161 to i1
  br i1 %162, label %163, label %170

163:                                              ; preds = %160
  %164 = load ptr, ptr %21, align 8
  %165 = icmp ne ptr %164, null
  %166 = xor i1 %165, true
  br i1 %166, label %167, label %170

167:                                              ; preds = %163
  %168 = load ptr, ptr %17, align 8
  store ptr null, ptr %168, align 8
  %169 = load ptr, ptr %18, align 8
  store i64 0, ptr %169, align 8
  br label %178

170:                                              ; preds = %163, %160
  %171 = load ptr, ptr %21, align 8
  %172 = getelementptr inbounds %struct._zend_string, ptr %171, i32 0, i32 3
  %173 = load ptr, ptr %17, align 8
  store ptr %172, ptr %173, align 8
  %174 = load ptr, ptr %21, align 8
  %175 = getelementptr inbounds %struct._zend_string, ptr %174, i32 0, i32 2
  %176 = load i64, ptr %175, align 8
  %177 = load ptr, ptr %18, align 8
  store i64 %176, ptr %177, align 8
  br label %178

178:                                              ; preds = %170, %167
  store i1 true, ptr %15, align 1
  br label %179

179:                                              ; preds = %178, %159
  %180 = load i1, ptr %15, align 1
  %181 = xor i1 %180, true
  %182 = xor i1 %181, true
  %183 = xor i1 %182, true
  %184 = zext i1 %183 to i32
  %185 = sext i32 %184 to i64
  %186 = icmp ne i64 %185, 0
  br i1 %186, label %187, label %188

187:                                              ; preds = %179
  store i32 4, ptr %34, align 4
  store i32 9, ptr %38, align 4
  br label %197

188:                                              ; preds = %179
  %189 = load i32, ptr %31, align 4
  %190 = load i32, ptr %29, align 4
  %191 = icmp eq i32 %189, %190
  br i1 %191, label %195, label %192

192:                                              ; preds = %188
  %193 = load i32, ptr %29, align 4
  %194 = icmp eq i32 %193, -1
  br label %195

195:                                              ; preds = %192, %188
  %196 = phi i1 [ true, %188 ], [ %194, %192 ]
  call void @llvm.assume(i1 %196)
  br label %197

197:                                              ; preds = %195, %187, %102, %63
  %198 = load i32, ptr %38, align 4
  %199 = icmp ne i32 %198, 0
  %200 = xor i1 %199, true
  %201 = xor i1 %200, true
  %202 = zext i1 %201 to i32
  %203 = sext i32 %202 to i64
  %204 = icmp ne i64 %203, 0
  br i1 %204, label %205, label %211

205:                                              ; preds = %197
  %206 = load i32, ptr %38, align 4
  %207 = load i32, ptr %31, align 4
  %208 = load ptr, ptr %35, align 8
  %209 = load i32, ptr %34, align 4
  %210 = load ptr, ptr %33, align 8
  call void @zend_wrong_parameter_error(i32 noundef %206, i32 noundef %207, ptr noundef %208, i32 noundef %209, ptr noundef %210)
  br label %237

211:                                              ; preds = %197
  br label %212

212:                                              ; preds = %211
  %213 = load ptr, ptr %24, align 8
  %214 = call ptr @getprotobyname(ptr noundef %213)
  store ptr %214, ptr %26, align 8
  %215 = load ptr, ptr %26, align 8
  %216 = icmp eq ptr %215, null
  br i1 %216, label %217, label %224

217:                                              ; preds = %212
  br label %218

218:                                              ; preds = %217
  br label %219

219:                                              ; preds = %218
  %220 = load ptr, ptr %23, align 8
  %221 = getelementptr inbounds %struct._zval_struct, ptr %220, i32 0, i32 1
  store i32 2, ptr %221, align 8
  br label %222

222:                                              ; preds = %219
  br label %237

223:                                              ; No predecessors!
  br label %224

224:                                              ; preds = %223, %212
  br label %225

225:                                              ; preds = %224
  br label %226

226:                                              ; preds = %225
  %227 = load ptr, ptr %23, align 8
  store ptr %227, ptr %39, align 8
  %228 = load ptr, ptr %26, align 8
  %229 = getelementptr inbounds %struct.protoent, ptr %228, i32 0, i32 2
  %230 = load i32, ptr %229, align 8
  %231 = sext i32 %230 to i64
  %232 = load ptr, ptr %39, align 8
  %233 = getelementptr inbounds %struct._zval_struct, ptr %232, i32 0, i32 0
  store i64 %231, ptr %233, align 8
  %234 = load ptr, ptr %39, align 8
  %235 = getelementptr inbounds %struct._zval_struct, ptr %234, i32 0, i32 1
  store i32 4, ptr %235, align 8
  br label %236

236:                                              ; preds = %226
  br label %237

237:                                              ; preds = %236, %222, %205
  ret void
}