; Function Attrs: nounwind uwtable
define hidden void @zif_getprotobyname(ptr noundef %0, ptr nocapture noundef writeonly %1) #0 {
  %3 = alloca ptr, align 8
  %4 = getelementptr inbounds i8, ptr %0, i64 44
  %5 = load i32, ptr %4, align 4
  %cond = icmp eq i32 %5, 1
  br i1 %cond, label %7, label %6

6:                                                ; preds = %2
  tail call void @zend_wrong_parameters_count_error(i32 noundef 1, i32 noundef 1) #18
  br label %16

7:                                                ; preds = %2
  %8 = getelementptr inbounds i8, ptr %0, i64 80
  %9 = getelementptr inbounds i8, ptr %0, i64 88
  %10 = load i8, ptr %9, align 8
  %11 = icmp eq i8 %10, 6
  br i1 %11, label %.thread78, label %13

.thread78:                                        ; preds = %7
  %12 = load ptr, ptr %8, align 8
  store ptr %12, ptr %3, align 8
  br label %17

13:                                               ; preds = %7
  %14 = call zeroext i1 @zend_parse_arg_str_slow(ptr noundef nonnull %8, ptr noundef nonnull %3, i32 noundef 1) #18
  %15 = load ptr, ptr %3, align 8
  br i1 %14, label %17, label %16

16:                                               ; preds = %6, %13
  %.069 = phi ptr [ null, %6 ], [ %8, %13 ]
  %.068 = phi i32 [ 0, %6 ], [ 4, %13 ]
  %.067 = phi i32 [ 0, %6 ], [ 1, %13 ]
  %.065 = phi i32 [ 1, %6 ], [ 9, %13 ]
  call void @zend_wrong_parameter_error(i32 noundef %.065, i32 noundef %.067, ptr noundef null, i32 noundef %.068, ptr noundef %.069) #18
  br label %27

17:                                               ; preds = %13, %.thread78
  %.pn = phi ptr [ %12, %.thread78 ], [ %15, %13 ]
  %.2.ph = getelementptr inbounds i8, ptr %.pn, i64 24
  %18 = call ptr @getprotobyname(ptr noundef nonnull %.2.ph) #18
  %19 = icmp eq ptr %18, null
  br i1 %19, label %20, label %22

20:                                               ; preds = %17
  %21 = getelementptr inbounds i8, ptr %1, i64 8
  store i32 2, ptr %21, align 8
  br label %27

22:                                               ; preds = %17
  %23 = getelementptr inbounds i8, ptr %18, i64 16
  %24 = load i32, ptr %23, align 8
  %25 = sext i32 %24 to i64
  store i64 %25, ptr %1, align 8
  %26 = getelementptr inbounds i8, ptr %1, i64 8
  store i32 4, ptr %26, align 8
  br label %27

27:                                               ; preds = %22, %20, %16
  ret void
}